; ModuleID = '22/444.c'
source_filename = "22/444.c"
target datalayout = "e-m:e-p270:32:32-p271:32:32-p272:64:64-i64:64-f80:128-n8:16:32:64-S128"
target triple = "x86_64-pc-linux-gnu"

@begin = dso_local global i32 0, align 4
@p = dso_local global i32 1, align 4
@done = dso_local global i32 0, align 4
@a = common dso_local global [1000 x i32] zeroinitializer, align 16
@.str = private unnamed_addr constant [3 x i8] c"%s\00", align 1
@s = common dso_local global [10000 x i8] zeroinitializer, align 16
@i = common dso_local global i32 0, align 4
@t = common dso_local global i8 0, align 1
@.str.1 = private unnamed_addr constant [4 x i8] c"%d\0A\00", align 1
@.str.2 = private unnamed_addr constant [4 x i8] c"No\0A\00", align 1

; Function Attrs: noinline nounwind uwtable
define dso_local i32 @IsDigit(i8 signext %0) #0 {
  %2 = alloca i32, align 4
  %3 = alloca i8, align 1
  store i8 %0, i8* %3, align 1
  %4 = load i8, i8* %3, align 1
  %5 = sext i8 %4 to i32
  %6 = icmp sle i32 %5, 57
  br i1 %6, label %7, label %12

7:                                                ; preds = %1
  %8 = load i8, i8* %3, align 1
  %9 = sext i8 %8 to i32
  %10 = icmp sge i32 %9, 48
  br i1 %10, label %11, label %12

11:                                               ; preds = %7
  store i32 1, i32* %2, align 4
  br label %13

12:                                               ; preds = %7, %1
  store i32 0, i32* %2, align 4
  br label %13

13:                                               ; preds = %12, %11
  %14 = load i32, i32* %2, align 4
  ret i32 %14
}

; Function Attrs: noinline nounwind uwtable
define dso_local void @sort(i32 %0, i32 %1) #0 {
  %3 = alloca i32, align 4
  %4 = alloca i32, align 4
  %5 = alloca i32, align 4
  %6 = alloca i32, align 4
  %7 = alloca i32, align 4
  %8 = alloca i32, align 4
  store i32 %0, i32* %3, align 4
  store i32 %1, i32* %4, align 4
  %9 = load i32, i32* %3, align 4
  store i32 %9, i32* %5, align 4
  %10 = load i32, i32* %4, align 4
  store i32 %10, i32* %6, align 4
  %11 = load i32, i32* %5, align 4
  %12 = load i32, i32* %6, align 4
  %13 = add nsw i32 %11, %12
  %14 = ashr i32 %13, 1
  %15 = sext i32 %14 to i64
  %16 = getelementptr inbounds [1000 x i32], [1000 x i32]* @a, i64 0, i64 %15
  %17 = load i32, i32* %16, align 4
  store i32 %17, i32* %7, align 4
  br label %18

18:                                               ; preds = %65, %2
  br label %19

19:                                               ; preds = %26, %18
  %20 = load i32, i32* %5, align 4
  %21 = sext i32 %20 to i64
  %22 = getelementptr inbounds [1000 x i32], [1000 x i32]* @a, i64 0, i64 %21
  %23 = load i32, i32* %22, align 4
  %24 = load i32, i32* %7, align 4
  %25 = icmp sgt i32 %23, %24
  br i1 %25, label %26, label %29

26:                                               ; preds = %19
  %27 = load i32, i32* %5, align 4
  %28 = add nsw i32 %27, 1
  store i32 %28, i32* %5, align 4
  br label %19

29:                                               ; preds = %19
  br label %30

30:                                               ; preds = %37, %29
  %31 = load i32, i32* %6, align 4
  %32 = sext i32 %31 to i64
  %33 = getelementptr inbounds [1000 x i32], [1000 x i32]* @a, i64 0, i64 %32
  %34 = load i32, i32* %33, align 4
  %35 = load i32, i32* %7, align 4
  %36 = icmp slt i32 %34, %35
  br i1 %36, label %37, label %40

37:                                               ; preds = %30
  %38 = load i32, i32* %6, align 4
  %39 = add nsw i32 %38, -1
  store i32 %39, i32* %6, align 4
  br label %30

40:                                               ; preds = %30
  %41 = load i32, i32* %5, align 4
  %42 = load i32, i32* %6, align 4
  %43 = icmp sle i32 %41, %42
  br i1 %43, label %44, label %64

44:                                               ; preds = %40
  %45 = load i32, i32* %5, align 4
  %46 = sext i32 %45 to i64
  %47 = getelementptr inbounds [1000 x i32], [1000 x i32]* @a, i64 0, i64 %46
  %48 = load i32, i32* %47, align 4
  store i32 %48, i32* %8, align 4
  %49 = load i32, i32* %6, align 4
  %50 = sext i32 %49 to i64
  %51 = getelementptr inbounds [1000 x i32], [1000 x i32]* @a, i64 0, i64 %50
  %52 = load i32, i32* %51, align 4
  %53 = load i32, i32* %5, align 4
  %54 = sext i32 %53 to i64
  %55 = getelementptr inbounds [1000 x i32], [1000 x i32]* @a, i64 0, i64 %54
  store i32 %52, i32* %55, align 4
  %56 = load i32, i32* %8, align 4
  %57 = load i32, i32* %6, align 4
  %58 = sext i32 %57 to i64
  %59 = getelementptr inbounds [1000 x i32], [1000 x i32]* @a, i64 0, i64 %58
  store i32 %56, i32* %59, align 4
  %60 = load i32, i32* %5, align 4
  %61 = add nsw i32 %60, 1
  store i32 %61, i32* %5, align 4
  %62 = load i32, i32* %6, align 4
  %63 = add nsw i32 %62, -1
  store i32 %63, i32* %6, align 4
  br label %64

64:                                               ; preds = %44, %40
  br label %65

65:                                               ; preds = %64
  %66 = load i32, i32* %5, align 4
  %67 = load i32, i32* %6, align 4
  %68 = icmp sle i32 %66, %67
  br i1 %68, label %18, label %69

69:                                               ; preds = %65
  %70 = load i32, i32* %5, align 4
  %71 = load i32, i32* %4, align 4
  %72 = icmp slt i32 %70, %71
  br i1 %72, label %73, label %76

73:                                               ; preds = %69
  %74 = load i32, i32* %5, align 4
  %75 = load i32, i32* %4, align 4
  call void @sort(i32 %74, i32 %75)
  br label %76

76:                                               ; preds = %73, %69
  %77 = load i32, i32* %3, align 4
  %78 = load i32, i32* %6, align 4
  %79 = icmp slt i32 %77, %78
  br i1 %79, label %80, label %83

80:                                               ; preds = %76
  %81 = load i32, i32* %3, align 4
  %82 = load i32, i32* %6, align 4
  call void @sort(i32 %81, i32 %82)
  br label %83

83:                                               ; preds = %80, %76
  ret void
}

; Function Attrs: noinline nounwind uwtable
define dso_local i32 @main() #0 {
  %1 = alloca i32, align 4
  store i32 0, i32* %1, align 4
  call void @llvm.memset.p0i8.i64(i8* align 16 bitcast ([1000 x i32]* @a to i8*), i8 0, i64 4000, i1 false)
  %2 = call i32 (i8*, ...) @__isoc99_scanf(i8* getelementptr inbounds ([3 x i8], [3 x i8]* @.str, i64 0, i64 0), i8* getelementptr inbounds ([10000 x i8], [10000 x i8]* @s, i64 0, i64 0))
  store i32 0, i32* @i, align 4
  br label %3

3:                                                ; preds = %37, %0
  %4 = load i32, i32* @i, align 4
  %5 = sext i32 %4 to i64
  %6 = call i64 @strlen(i8* getelementptr inbounds ([10000 x i8], [10000 x i8]* @s, i64 0, i64 0)) #4
  %7 = icmp ult i64 %5, %6
  br i1 %7, label %8, label %40

8:                                                ; preds = %3
  %9 = load i32, i32* @i, align 4
  %10 = sext i32 %9 to i64
  %11 = getelementptr inbounds [10000 x i8], [10000 x i8]* @s, i64 0, i64 %10
  %12 = load i8, i8* %11, align 1
  store i8 %12, i8* @t, align 1
  %13 = load i8, i8* @t, align 1
  %14 = call i32 @IsDigit(i8 signext %13)
  %15 = icmp ne i32 %14, 0
  br i1 %15, label %23, label %16

16:                                               ; preds = %8
  %17 = load i32, i32* @begin, align 4
  %18 = icmp eq i32 %17, 1
  br i1 %18, label %19, label %22

19:                                               ; preds = %16
  %20 = load i32, i32* @p, align 4
  %21 = add nsw i32 %20, 1
  store i32 %21, i32* @p, align 4
  store i32 0, i32* @begin, align 4
  br label %22

22:                                               ; preds = %19, %16
  br label %36

23:                                               ; preds = %8
  store i32 1, i32* @begin, align 4
  %24 = load i32, i32* @p, align 4
  %25 = sext i32 %24 to i64
  %26 = getelementptr inbounds [1000 x i32], [1000 x i32]* @a, i64 0, i64 %25
  %27 = load i32, i32* %26, align 4
  %28 = mul nsw i32 %27, 10
  %29 = load i8, i8* @t, align 1
  %30 = sext i8 %29 to i32
  %31 = add nsw i32 %28, %30
  %32 = sub nsw i32 %31, 48
  %33 = load i32, i32* @p, align 4
  %34 = sext i32 %33 to i64
  %35 = getelementptr inbounds [1000 x i32], [1000 x i32]* @a, i64 0, i64 %34
  store i32 %32, i32* %35, align 4
  br label %36

36:                                               ; preds = %23, %22
  br label %37

37:                                               ; preds = %36
  %38 = load i32, i32* @i, align 4
  %39 = add nsw i32 %38, 1
  store i32 %39, i32* @i, align 4
  br label %3

40:                                               ; preds = %3
  %41 = load i32, i32* @p, align 4
  call void @sort(i32 1, i32 %41)
  store i32 2, i32* @i, align 4
  br label %42

42:                                               ; preds = %64, %40
  %43 = load i32, i32* @i, align 4
  %44 = load i32, i32* @p, align 4
  %45 = icmp sle i32 %43, %44
  br i1 %45, label %46, label %67

46:                                               ; preds = %42
  %47 = load i32, i32* @i, align 4
  %48 = sext i32 %47 to i64
  %49 = getelementptr inbounds [1000 x i32], [1000 x i32]* @a, i64 0, i64 %48
  %50 = load i32, i32* %49, align 4
  %51 = load i32, i32* @i, align 4
  %52 = sub nsw i32 %51, 1
  %53 = sext i32 %52 to i64
  %54 = getelementptr inbounds [1000 x i32], [1000 x i32]* @a, i64 0, i64 %53
  %55 = load i32, i32* %54, align 4
  %56 = icmp ne i32 %50, %55
  br i1 %56, label %57, label %63

57:                                               ; preds = %46
  %58 = load i32, i32* @i, align 4
  %59 = sext i32 %58 to i64
  %60 = getelementptr inbounds [1000 x i32], [1000 x i32]* @a, i64 0, i64 %59
  %61 = load i32, i32* %60, align 4
  %62 = call i32 (i8*, ...) @printf(i8* getelementptr inbounds ([4 x i8], [4 x i8]* @.str.1, i64 0, i64 0), i32 %61)
  store i32 1, i32* @done, align 4
  br label %67

63:                                               ; preds = %46
  br label %64

64:                                               ; preds = %63
  %65 = load i32, i32* @i, align 4
  %66 = add nsw i32 %65, 1
  store i32 %66, i32* @i, align 4
  br label %42

67:                                               ; preds = %57, %42
  %68 = load i32, i32* @done, align 4
  %69 = icmp eq i32 %68, 0
  br i1 %69, label %70, label %72

70:                                               ; preds = %67
  %71 = call i32 (i8*, ...) @printf(i8* getelementptr inbounds ([4 x i8], [4 x i8]* @.str.2, i64 0, i64 0))
  br label %72

72:                                               ; preds = %70, %67
  ret i32 0
}

; Function Attrs: argmemonly nounwind willreturn
declare void @llvm.memset.p0i8.i64(i8* nocapture writeonly, i8, i64, i1 immarg) #1

declare dso_local i32 @__isoc99_scanf(i8*, ...) #2

; Function Attrs: nounwind readonly
declare dso_local i64 @strlen(i8*) #3

declare dso_local i32 @printf(i8*, ...) #2


!llvm.module.flags = !{!0}
!llvm.ident = !{!1}

!0 = !{i32 1, !"wchar_size", i32 4}
!1 = !{!"clang version 10.0.0-4ubuntu1 "}
